; Function Attrs: nounwind sspstrong uwtable
define internal noundef i64 @rb_mod_freeze(i64 noundef returned %0) #2 {
  %2 = tail call i64 @rb_class_name(i64 noundef %0) #23
  %3 = icmp eq i64 %0, 0
  %4 = and i64 %0, 7
  %5 = icmp ne i64 %4, 0
  %6 = or i1 %3, %5
  br i1 %6, label %rb_obj_freeze.exit, label %RB_FL_ABLE.exit.i.i

RB_FL_ABLE.exit.i.i:                              ; preds = %1
  %7 = inttoptr i64 %0 to ptr
  %8 = load i64, ptr %7, align 8, !tbaa !24
  %9 = and i64 %8, 31
  %.not.i.i = icmp eq i64 %9, 27
  %10 = and i64 %8, 2048
  %11 = icmp ne i64 %10, 0
  %or.cond.i = or i1 %.not.i.i, %11
  br i1 %or.cond.i, label %rb_obj_freeze.exit, label %12

12:                                               ; preds = %RB_FL_ABLE.exit.i.i
  tail call void @rb_obj_freeze_inline(i64 noundef %0) #23
  br label %rb_obj_freeze.exit

rb_obj_freeze.exit:                               ; preds = %1, %RB_FL_ABLE.exit.i.i, %12
  ret i64 %0
}